target datalayout = "e-m:e-p270:32:32-p271:32:32-p272:64:64-i64:64-i128:128-f80:128-n8:16:32:64-S128"
target triple = "x86_64-pc-linux-gnu"

%struct.AppendState = type { %struct.PlanState, ptr, i32, i32, i8, ptr, i32, ptr, ptr, i32, i8, i32, ptr, ptr, i32, ptr, i64, ptr, i8, ptr, ptr, ptr }
%struct.PlanState = type { i32, ptr, ptr, ptr, ptr, ptr, ptr, ptr, ptr, ptr, ptr, ptr, ptr, ptr, ptr, ptr, ptr, ptr, i8, ptr, ptr, ptr, ptr, ptr, i8, i8, i8, i8, i8, i8, i8, i8 }
%struct.AsyncRequest = type { ptr, ptr, i32, i8, i8, ptr }
%struct.TupleTableSlot = type { i32, i16, i16, ptr, ptr, ptr, ptr, ptr, %struct.ItemPointerData, i32 }
%struct.ItemPointerData = type { %struct.BlockIdData, i16 }
%struct.BlockIdData = type { i16, i16 }

; Function Attrs: nounwind uwtable
define dso_local void @ExecAsyncAppendResponse(ptr noundef %0) #0 {
  %2 = alloca ptr, align 8
  %3 = alloca ptr, align 8
  %4 = alloca ptr, align 8
  %5 = alloca i32, align 4
  store ptr %0, ptr %2, align 8
  call void @llvm.lifetime.start.p0(i64 8, ptr %3) #6
  %6 = load ptr, ptr %2, align 8
  %7 = getelementptr inbounds nuw %struct.AsyncRequest, ptr %6, i32 0, i32 0
  %8 = load ptr, ptr %7, align 8
  store ptr %8, ptr %3, align 8
  call void @llvm.lifetime.start.p0(i64 8, ptr %4) #6
  %9 = load ptr, ptr %2, align 8
  %10 = getelementptr inbounds nuw %struct.AsyncRequest, ptr %9, i32 0, i32 5
  %11 = load ptr, ptr %10, align 8
  store ptr %11, ptr %4, align 8
  %12 = load ptr, ptr %2, align 8
  %13 = getelementptr inbounds nuw %struct.AsyncRequest, ptr %12, i32 0, i32 4
  %14 = load i8, ptr %13, align 1, !range !4, !noundef !5
  %15 = trunc i8 %14 to i1
  br i1 %15, label %17, label %16

16:                                               ; preds = %1
  store i32 1, ptr %5, align 4
  br label %52

17:                                               ; preds = %1
  %18 = load ptr, ptr %4, align 8
  %19 = icmp eq ptr %18, null
  br i1 %19, label %27, label %20

20:                                               ; preds = %17
  %21 = load ptr, ptr %4, align 8
  %22 = getelementptr inbounds nuw %struct.TupleTableSlot, ptr %21, i32 0, i32 1
  %23 = load i16, ptr %22, align 4
  %24 = zext i16 %23 to i32
  %25 = and i32 %24, 2
  %26 = icmp ne i32 %25, 0
  br i1 %26, label %27, label %32

27:                                               ; preds = %20, %17
  %28 = load ptr, ptr %3, align 8
  %29 = getelementptr inbounds nuw %struct.AppendState, ptr %28, i32 0, i32 11
  %30 = load i32, ptr %29, align 8
  %31 = add i32 %30, -1
  store i32 %31, ptr %29, align 8
  store i32 1, ptr %5, align 4
  br label %52

32:                                               ; preds = %20
  %33 = load ptr, ptr %4, align 8
  %34 = load ptr, ptr %3, align 8
  %35 = getelementptr inbounds nuw %struct.AppendState, ptr %34, i32 0, i32 8
  %36 = load ptr, ptr %35, align 8
  %37 = load ptr, ptr %3, align 8
  %38 = getelementptr inbounds nuw %struct.AppendState, ptr %37, i32 0, i32 9
  %39 = load i32, ptr %38, align 8
  %40 = add i32 %39, 1
  store i32 %40, ptr %38, align 8
  %41 = sext i32 %39 to i64
  %42 = getelementptr inbounds ptr, ptr %36, i64 %41
  store ptr %33, ptr %42, align 8
  %43 = load ptr, ptr %3, align 8
  %44 = getelementptr inbounds nuw %struct.AppendState, ptr %43, i32 0, i32 12
  %45 = load ptr, ptr %44, align 8
  %46 = load ptr, ptr %2, align 8
  %47 = getelementptr inbounds nuw %struct.AsyncRequest, ptr %46, i32 0, i32 2
  %48 = load i32, ptr %47, align 8
  %49 = call ptr @bms_add_member(ptr noundef %45, i32 noundef %48)
  %50 = load ptr, ptr %3, align 8
  %51 = getelementptr inbounds nuw %struct.AppendState, ptr %50, i32 0, i32 12
  store ptr %49, ptr %51, align 8
  store i32 0, ptr %5, align 4
  br label %52

52:                                               ; preds = %32, %27, %16
  call void @llvm.lifetime.end.p0(i64 8, ptr %4) #6
  call void @llvm.lifetime.end.p0(i64 8, ptr %3) #6
  %53 = load i32, ptr %5, align 4
  switch i32 %53, label %55 [
    i32 0, label %54
    i32 1, label %54
  ]

54:                                               ; preds = %52, %52
  ret void

55:                                               ; preds = %52
  unreachable
}