; Function Attrs: nounwind uwtable
define dso_local void @ExecAsyncAppendResponse(ptr noundef readonly captures(none) %0) local_unnamed_addr #0 {
  %2 = load ptr, ptr %0, align 8
  %3 = getelementptr inbounds nuw i8, ptr %0, i64 24
  %4 = load ptr, ptr %3, align 8
  %5 = getelementptr inbounds nuw i8, ptr %0, i64 21
  %6 = load i8, ptr %5, align 1, !range !4, !noundef !5
  %7 = trunc nuw i8 %6 to i1
  br i1 %7, label %8, label %31

8:                                                ; preds = %1
  %9 = icmp eq ptr %4, null
  br i1 %9, label %14, label %10

10:                                               ; preds = %8
  %11 = getelementptr inbounds nuw i8, ptr %4, i64 4
  %12 = load i16, ptr %11, align 4
  %13 = and i16 %12, 2
  %.not = icmp eq i16 %13, 0
  br i1 %.not, label %18, label %14

14:                                               ; preds = %10, %8
  %15 = getelementptr inbounds nuw i8, ptr %2, i64 264
  %16 = load i32, ptr %15, align 8
  %17 = add i32 %16, -1
  store i32 %17, ptr %15, align 8
  br label %31

18:                                               ; preds = %10
  %19 = getelementptr inbounds nuw i8, ptr %2, i64 248
  %20 = load ptr, ptr %19, align 8
  %21 = getelementptr inbounds nuw i8, ptr %2, i64 256
  %22 = load i32, ptr %21, align 8
  %23 = add i32 %22, 1
  store i32 %23, ptr %21, align 8
  %24 = sext i32 %22 to i64
  %25 = getelementptr inbounds ptr, ptr %20, i64 %24
  store ptr %4, ptr %25, align 8
  %26 = getelementptr inbounds nuw i8, ptr %2, i64 272
  %27 = load ptr, ptr %26, align 8
  %28 = getelementptr inbounds nuw i8, ptr %0, i64 16
  %29 = load i32, ptr %28, align 8
  %30 = tail call ptr @bms_add_member(ptr noundef %27, i32 noundef %29) #6
  store ptr %30, ptr %26, align 8
  br label %31

31:                                               ; preds = %1, %18, %14
  ret void
}